target datalayout = "e-m:e-p270:32:32-p271:32:32-p272:64:64-i64:64-i128:128-f80:128-n8:16:32:64-S128"
target triple = "x86_64-pc-linux-gnu"

%struct.crypto_ex_data_st = type { ptr }
%struct.ssl_st = type { i32, i16, i16, ptr, ptr, ptr, ptr, ptr, i32, i32, ptr, ptr, i32, i32, ptr, ptr, ptr, ptr, ptr, ptr, ptr, ptr, i32, i32, [32 x i8], ptr, ptr, ptr, ptr, ptr, ptr, ptr, i64, %struct.crypto_ex_data_st, ptr, i32, i32, i32, i32, i16, ptr, i32, i64, ptr, ptr, ptr, ptr, ptr, ptr, i32, i32, ptr, ptr, i8, i8, i32 }
%struct.cert_st = type { ptr, ptr, ptr, ptr, i32, i32, ptr, ptr, ptr, i64, ptr, i64, ptr, ptr, ptr }
%struct.x509_st = type { ptr, ptr, ptr, i32, i32, ptr, %struct.crypto_ex_data_st, i64, i64, i64, i64, i64, i64, ptr, ptr, ptr, ptr, ptr, ptr, [20 x i8], ptr }

; Function Attrs: nounwind uwtable
define hidden void @ssl_get_compatible_server_ciphers(ptr noundef %0, ptr noundef %1, ptr noundef %2) #0 {
  %4 = alloca ptr, align 8
  %5 = alloca ptr, align 8
  %6 = alloca ptr, align 8
  %7 = alloca ptr, align 8
  %8 = alloca i32, align 4
  %9 = alloca i32, align 4
  %10 = alloca i32, align 4
  %11 = alloca i32, align 4
  %12 = alloca i32, align 4
  %13 = alloca i32, align 4
  %14 = alloca ptr, align 8
  %15 = alloca i16, align 2
  store ptr %0, ptr %4, align 8, !tbaa !80
  store ptr %1, ptr %5, align 8, !tbaa !220
  store ptr %2, ptr %6, align 8, !tbaa !220
  call void @llvm.lifetime.start.p0(i64 8, ptr %7) #8
  %16 = load ptr, ptr %4, align 8, !tbaa !80
  %17 = getelementptr inbounds nuw %struct.ssl_st, ptr %16, i32 0, i32 21
  %18 = load ptr, ptr %17, align 8, !tbaa !96
  store ptr %18, ptr %7, align 8, !tbaa !233
  call void @llvm.lifetime.start.p0(i64 4, ptr %8) #8
  store i32 0, ptr %8, align 4, !tbaa !61
  call void @llvm.lifetime.start.p0(i64 4, ptr %9) #8
  call void @llvm.lifetime.start.p0(i64 4, ptr %10) #8
  call void @llvm.lifetime.start.p0(i64 4, ptr %11) #8
  call void @llvm.lifetime.start.p0(i64 4, ptr %12) #8
  store i32 0, ptr %12, align 4, !tbaa !61
  call void @llvm.lifetime.start.p0(i64 4, ptr %13) #8
  call void @llvm.lifetime.start.p0(i64 8, ptr %14) #8
  %19 = load ptr, ptr %7, align 8, !tbaa !233
  %20 = getelementptr inbounds nuw %struct.cert_st, ptr %19, i32 0, i32 6
  %21 = load ptr, ptr %20, align 8, !tbaa !234
  %22 = icmp ne ptr %21, null
  br i1 %22, label %28, label %23

23:                                               ; preds = %3
  %24 = load ptr, ptr %7, align 8, !tbaa !233
  %25 = getelementptr inbounds nuw %struct.cert_st, ptr %24, i32 0, i32 7
  %26 = load ptr, ptr %25, align 8, !tbaa !235
  %27 = icmp ne ptr %26, null
  br label %28

28:                                               ; preds = %23, %3
  %29 = phi i1 [ true, %3 ], [ %27, %23 ]
  %30 = zext i1 %29 to i32
  store i32 %30, ptr %9, align 4, !tbaa !61
  %31 = load ptr, ptr %4, align 8, !tbaa !80
  %32 = getelementptr inbounds nuw %struct.ssl_st, ptr %31, i32 0, i32 21
  %33 = load ptr, ptr %32, align 8, !tbaa !96
  %34 = getelementptr inbounds nuw %struct.cert_st, ptr %33, i32 0, i32 0
  %35 = load ptr, ptr %34, align 8, !tbaa !185
  %36 = icmp ne ptr %35, null
  br i1 %36, label %37, label %53

37:                                               ; preds = %28
  %38 = load ptr, ptr %4, align 8, !tbaa !80
  %39 = call i32 @ssl_has_private_key(ptr noundef %38)
  %40 = icmp ne i32 %39, 0
  br i1 %40, label %41, label %53

41:                                               ; preds = %37
  %42 = load ptr, ptr %4, align 8, !tbaa !80
  %43 = call i32 @ssl_private_key_type(ptr noundef %42)
  %44 = icmp eq i32 %43, 6
  br i1 %44, label %45, label %46

45:                                               ; preds = %41
  store i32 1, ptr %8, align 4, !tbaa !61
  br label %52

46:                                               ; preds = %41
  %47 = load ptr, ptr %4, align 8, !tbaa !80
  %48 = call i32 @ssl_private_key_type(ptr noundef %47)
  %49 = icmp eq i32 %48, 408
  br i1 %49, label %50, label %51

50:                                               ; preds = %46
  store i32 1, ptr %12, align 4, !tbaa !61
  br label %51

51:                                               ; preds = %50, %46
  br label %52

52:                                               ; preds = %51, %45
  br label %53

53:                                               ; preds = %52, %37, %28
  store i32 0, ptr %10, align 4, !tbaa !61
  store i32 0, ptr %11, align 4, !tbaa !61
  %54 = load i32, ptr %9, align 4, !tbaa !61
  %55 = icmp ne i32 %54, 0
  br i1 %55, label %56, label %61

56:                                               ; preds = %53
  %57 = load i32, ptr %10, align 4, !tbaa !61
  %58 = zext i32 %57 to i64
  %59 = or i64 %58, 2
  %60 = trunc i64 %59 to i32
  store i32 %60, ptr %10, align 4, !tbaa !61
  br label %61

61:                                               ; preds = %56, %53
  %62 = load i32, ptr %8, align 4, !tbaa !61
  %63 = icmp ne i32 %62, 0
  br i1 %63, label %64, label %73

64:                                               ; preds = %61
  %65 = load i32, ptr %10, align 4, !tbaa !61
  %66 = zext i32 %65 to i64
  %67 = or i64 %66, 1
  %68 = trunc i64 %67 to i32
  store i32 %68, ptr %10, align 4, !tbaa !61
  %69 = load i32, ptr %11, align 4, !tbaa !61
  %70 = zext i32 %69 to i64
  %71 = or i64 %70, 1
  %72 = trunc i64 %71 to i32
  store i32 %72, ptr %11, align 4, !tbaa !61
  br label %73

73:                                               ; preds = %64, %61
  %74 = load i32, ptr %12, align 4, !tbaa !61
  %75 = icmp ne i32 %74, 0
  br i1 %75, label %76, label %110

76:                                               ; preds = %73
  %77 = load ptr, ptr %7, align 8, !tbaa !233
  %78 = getelementptr inbounds nuw %struct.cert_st, ptr %77, i32 0, i32 0
  %79 = load ptr, ptr %78, align 8, !tbaa !185
  store ptr %79, ptr %14, align 8, !tbaa !236
  %80 = load ptr, ptr %14, align 8, !tbaa !236
  %81 = call i32 @X509_check_purpose(ptr noundef %80, i32 noundef -1, i32 noundef 0)
  %82 = load ptr, ptr %14, align 8, !tbaa !236
  %83 = getelementptr inbounds nuw %struct.x509_st, ptr %82, i32 0, i32 9
  %84 = load i64, ptr %83, align 8, !tbaa !237
  %85 = and i64 %84, 2
  %86 = icmp ne i64 %85, 0
  br i1 %86, label %87, label %92

87:                                               ; preds = %76
  %88 = load ptr, ptr %14, align 8, !tbaa !236
  %89 = getelementptr inbounds nuw %struct.x509_st, ptr %88, i32 0, i32 10
  %90 = load i64, ptr %89, align 8, !tbaa !248
  %91 = and i64 %90, 128
  br label %93

92:                                               ; preds = %76
  br label %93

93:                                               ; preds = %92, %87
  %94 = phi i64 [ %91, %87 ], [ 1, %92 ]
  %95 = trunc i64 %94 to i32
  store i32 %95, ptr %13, align 4, !tbaa !61
  %96 = load ptr, ptr %4, align 8, !tbaa !80
  %97 = load ptr, ptr %14, align 8, !tbaa !236
  %98 = call i32 @tls1_check_ec_cert(ptr noundef %96, ptr noundef %97)
  %99 = icmp ne i32 %98, 0
  br i1 %99, label %101, label %100

100:                                              ; preds = %93
  store i32 0, ptr %13, align 4, !tbaa !61
  br label %101

101:                                              ; preds = %100, %93
  %102 = load i32, ptr %13, align 4, !tbaa !61
  %103 = icmp ne i32 %102, 0
  br i1 %103, label %104, label %109

104:                                              ; preds = %101
  %105 = load i32, ptr %11, align 4, !tbaa !61
  %106 = zext i32 %105 to i64
  %107 = or i64 %106, 2
  %108 = trunc i64 %107 to i32
  store i32 %108, ptr %11, align 4, !tbaa !61
  br label %109

109:                                              ; preds = %104, %101
  br label %110

110:                                              ; preds = %109, %73
  call void @llvm.lifetime.start.p0(i64 2, ptr %15) #8
  %111 = load ptr, ptr %4, align 8, !tbaa !80
  %112 = call i32 @tls1_get_shared_curve(ptr noundef %111, ptr noundef %15)
  %113 = icmp ne i32 %112, 0
  br i1 %113, label %114, label %119

114:                                              ; preds = %110
  %115 = load i32, ptr %10, align 4, !tbaa !61
  %116 = zext i32 %115 to i64
  %117 = or i64 %116, 4
  %118 = trunc i64 %117 to i32
  store i32 %118, ptr %10, align 4, !tbaa !61
  br label %119

119:                                              ; preds = %114, %110
  %120 = load ptr, ptr %4, align 8, !tbaa !80
  %121 = getelementptr inbounds nuw %struct.ssl_st, ptr %120, i32 0, i32 30
  %122 = load ptr, ptr %121, align 8, !tbaa !125
  %123 = icmp ne ptr %122, null
  br i1 %123, label %124, label %133

124:                                              ; preds = %119
  %125 = load i32, ptr %10, align 4, !tbaa !61
  %126 = zext i32 %125 to i64
  %127 = or i64 %126, 8
  %128 = trunc i64 %127 to i32
  store i32 %128, ptr %10, align 4, !tbaa !61
  %129 = load i32, ptr %11, align 4, !tbaa !61
  %130 = zext i32 %129 to i64
  %131 = or i64 %130, 4
  %132 = trunc i64 %131 to i32
  store i32 %132, ptr %11, align 4, !tbaa !61
  br label %133

133:                                              ; preds = %124, %119
  %134 = load i32, ptr %10, align 4, !tbaa !61
  %135 = load ptr, ptr %5, align 8, !tbaa !220
  store i32 %134, ptr %135, align 4, !tbaa !61
  %136 = load i32, ptr %11, align 4, !tbaa !61
  %137 = load ptr, ptr %6, align 8, !tbaa !220
  store i32 %136, ptr %137, align 4, !tbaa !61
  call void @llvm.lifetime.end.p0(i64 2, ptr %15) #8
  call void @llvm.lifetime.end.p0(i64 8, ptr %14) #8
  call void @llvm.lifetime.end.p0(i64 4, ptr %13) #8
  call void @llvm.lifetime.end.p0(i64 4, ptr %12) #8
  call void @llvm.lifetime.end.p0(i64 4, ptr %11) #8
  call void @llvm.lifetime.end.p0(i64 4, ptr %10) #8
  call void @llvm.lifetime.end.p0(i64 4, ptr %9) #8
  call void @llvm.lifetime.end.p0(i64 4, ptr %8) #8
  call void @llvm.lifetime.end.p0(i64 8, ptr %7) #8
  ret void
}