; Function Attrs: nounwind uwtable
define hidden void @ssl_get_compatible_server_ciphers(ptr noundef %0, ptr noundef writeonly captures(none) initializes((0, 4)) %1, ptr noundef writeonly captures(none) initializes((0, 4)) %2) local_unnamed_addr #0 {
  %4 = alloca i16, align 2
  %5 = getelementptr inbounds nuw i8, ptr %0, i64 136
  %6 = load ptr, ptr %5, align 8, !tbaa !85
  %7 = getelementptr inbounds nuw i8, ptr %6, i64 40
  %8 = load ptr, ptr %7, align 8, !tbaa !210
  %.not = icmp eq ptr %8, null
  br i1 %.not, label %9, label %13

9:                                                ; preds = %3
  %10 = getelementptr inbounds nuw i8, ptr %6, i64 48
  %11 = load ptr, ptr %10, align 8, !tbaa !211
  %.not68 = icmp eq ptr %11, null
  %12 = select i1 %.not68, i32 0, i32 2
  br label %13

13:                                               ; preds = %9, %3
  %spec.select445066 = phi i32 [ 2, %3 ], [ %12, %9 ]
  %14 = load ptr, ptr %6, align 8, !tbaa !167
  %.not35 = icmp eq ptr %14, null
  br i1 %.not35, label %.thread64, label %15

15:                                               ; preds = %13
  %16 = tail call i32 @ssl_has_private_key(ptr noundef nonnull %0) #21
  %.not36 = icmp eq i32 %16, 0
  br i1 %.not36, label %.thread64, label %17

17:                                               ; preds = %15
  %18 = tail call i32 @ssl_private_key_type(ptr noundef nonnull %0) #21
  %19 = icmp eq i32 %18, 6
  br i1 %19, label %.thread61, label %21

.thread61:                                        ; preds = %17
  %20 = or disjoint i32 %spec.select445066, 1
  br label %.thread64

21:                                               ; preds = %17
  %22 = tail call i32 @ssl_private_key_type(ptr noundef nonnull %0) #21
  %.not67 = icmp eq i32 %22, 408
  br i1 %.not67, label %23, label %.thread64

23:                                               ; preds = %21
  %24 = load ptr, ptr %6, align 8, !tbaa !167
  %25 = tail call i32 @X509_check_purpose(ptr noundef %24, i32 noundef -1, i32 noundef 0) #21
  %26 = getelementptr inbounds nuw i8, ptr %24, i64 64
  %27 = load i64, ptr %26, align 8, !tbaa !212
  %28 = and i64 %27, 2
  %.not39 = icmp eq i64 %28, 0
  br i1 %.not39, label %34, label %29

29:                                               ; preds = %23
  %30 = getelementptr inbounds nuw i8, ptr %24, i64 72
  %31 = load i64, ptr %30, align 8, !tbaa !223
  %32 = and i64 %31, 128
  %33 = icmp eq i64 %32, 0
  br label %34

34:                                               ; preds = %23, %29
  %.not4169 = phi i1 [ %33, %29 ], [ false, %23 ]
  %35 = tail call i32 @tls1_check_ec_cert(ptr noundef nonnull %0, ptr noundef nonnull %24) #21
  %.not40 = icmp eq i32 %35, 0
  %.not41 = select i1 %.not40, i1 true, i1 %.not4169
  %spec.select47 = select i1 %.not41, i32 0, i32 2
  br label %.thread64

.thread64:                                        ; preds = %15, %13, %.thread61, %34, %21
  %36 = phi i32 [ %spec.select445066, %21 ], [ %spec.select445066, %34 ], [ %20, %.thread61 ], [ %spec.select445066, %13 ], [ %spec.select445066, %15 ]
  %.1 = phi i32 [ 0, %21 ], [ %spec.select47, %34 ], [ 1, %.thread61 ], [ 0, %13 ], [ 0, %15 ]
  call void @llvm.lifetime.start.p0(i64 2, ptr nonnull %4) #21
  %37 = call i32 @tls1_get_shared_curve(ptr noundef nonnull %0, ptr noundef nonnull %4) #21
  %.not42 = icmp eq i32 %37, 0
  %38 = or i32 %36, 4
  %spec.select46 = select i1 %.not42, i32 %36, i32 %38
  %39 = getelementptr inbounds nuw i8, ptr %0, i64 224
  %40 = load ptr, ptr %39, align 8, !tbaa !114
  %.not43 = icmp eq ptr %40, null
  %41 = or i32 %spec.select46, 8
  %42 = or disjoint i32 %.1, 4
  %.3 = select i1 %.not43, i32 %spec.select46, i32 %41
  %.2 = select i1 %.not43, i32 %.1, i32 %42
  store i32 %.3, ptr %1, align 4, !tbaa !161
  store i32 %.2, ptr %2, align 4, !tbaa !161
  call void @llvm.lifetime.end.p0(i64 2, ptr nonnull %4) #21
  ret void
}